; ModuleID = '20/629.c'
source_filename = "20/629.c"
target datalayout = "e-m:e-p270:32:32-p271:32:32-p272:64:64-i64:64-f80:128-n8:16:32:64-S128"
target triple = "x86_64-pc-linux-gnu"

@.str = private unnamed_addr constant [5 x i8] c"%s%s\00", align 1
@.str.1 = private unnamed_addr constant [4 x i8] c"%s\0A\00", align 1

; Function Attrs: noinline nounwind uwtable
define dso_local void @main() #0 {
  %1 = alloca [20 x i8], align 16
  %2 = alloca [4 x i8], align 1
  %3 = alloca i8, align 1
  %4 = alloca i32, align 4
  %5 = alloca i32, align 4
  %6 = alloca i32, align 4
  %7 = bitcast [20 x i8]* %1 to i8*
  call void @llvm.memset.p0i8.i64(i8* align 16 %7, i8 0, i64 20, i1 false)
  %8 = bitcast [4 x i8]* %2 to i8*
  call void @llvm.memset.p0i8.i64(i8* align 1 %8, i8 0, i64 4, i1 false)
  br label %9

9:                                                ; preds = %79, %0
  %10 = getelementptr inbounds [20 x i8], [20 x i8]* %1, i64 0, i64 0
  %11 = getelementptr inbounds [4 x i8], [4 x i8]* %2, i64 0, i64 0
  %12 = call i32 (i8*, ...) @__isoc99_scanf(i8* getelementptr inbounds ([5 x i8], [5 x i8]* @.str, i64 0, i64 0), i8* %10, i8* %11)
  %13 = icmp ne i32 %12, -1
  br i1 %13, label %14, label %82

14:                                               ; preds = %9
  %15 = getelementptr inbounds [20 x i8], [20 x i8]* %1, i64 0, i64 0
  %16 = call i64 @strlen(i8* %15) #4
  %17 = trunc i64 %16 to i32
  store i32 %17, i32* %4, align 4
  store i32 0, i32* %6, align 4
  %18 = getelementptr inbounds [20 x i8], [20 x i8]* %1, i64 0, i64 0
  %19 = load i8, i8* %18, align 16
  store i8 %19, i8* %3, align 1
  store i32 0, i32* %5, align 4
  br label %20

20:                                               ; preds = %40, %14
  %21 = load i32, i32* %5, align 4
  %22 = load i32, i32* %4, align 4
  %23 = icmp slt i32 %21, %22
  br i1 %23, label %24, label %43

24:                                               ; preds = %20
  %25 = load i8, i8* %3, align 1
  %26 = sext i8 %25 to i32
  %27 = load i32, i32* %5, align 4
  %28 = sext i32 %27 to i64
  %29 = getelementptr inbounds [20 x i8], [20 x i8]* %1, i64 0, i64 %28
  %30 = load i8, i8* %29, align 1
  %31 = sext i8 %30 to i32
  %32 = icmp slt i32 %26, %31
  br i1 %32, label %33, label %39

33:                                               ; preds = %24
  %34 = load i32, i32* %5, align 4
  %35 = sext i32 %34 to i64
  %36 = getelementptr inbounds [20 x i8], [20 x i8]* %1, i64 0, i64 %35
  %37 = load i8, i8* %36, align 1
  store i8 %37, i8* %3, align 1
  %38 = load i32, i32* %5, align 4
  store i32 %38, i32* %6, align 4
  br label %39

39:                                               ; preds = %33, %24
  br label %40

40:                                               ; preds = %39
  %41 = load i32, i32* %5, align 4
  %42 = add nsw i32 %41, 1
  store i32 %42, i32* %5, align 4
  br label %20

43:                                               ; preds = %20
  %44 = load i32, i32* %4, align 4
  store i32 %44, i32* %5, align 4
  br label %45

45:                                               ; preds = %58, %43
  %46 = load i32, i32* %5, align 4
  %47 = load i32, i32* %6, align 4
  %48 = icmp sgt i32 %46, %47
  br i1 %48, label %49, label %61

49:                                               ; preds = %45
  %50 = load i32, i32* %5, align 4
  %51 = sext i32 %50 to i64
  %52 = getelementptr inbounds [20 x i8], [20 x i8]* %1, i64 0, i64 %51
  %53 = load i8, i8* %52, align 1
  %54 = load i32, i32* %5, align 4
  %55 = add nsw i32 %54, 3
  %56 = sext i32 %55 to i64
  %57 = getelementptr inbounds [20 x i8], [20 x i8]* %1, i64 0, i64 %56
  store i8 %53, i8* %57, align 1
  br label %58

58:                                               ; preds = %49
  %59 = load i32, i32* %5, align 4
  %60 = add nsw i32 %59, -1
  store i32 %60, i32* %5, align 4
  br label %45

61:                                               ; preds = %45
  store i32 0, i32* %5, align 4
  br label %62

62:                                               ; preds = %76, %61
  %63 = load i32, i32* %5, align 4
  %64 = icmp slt i32 %63, 3
  br i1 %64, label %65, label %79

65:                                               ; preds = %62
  %66 = load i32, i32* %5, align 4
  %67 = sext i32 %66 to i64
  %68 = getelementptr inbounds [4 x i8], [4 x i8]* %2, i64 0, i64 %67
  %69 = load i8, i8* %68, align 1
  %70 = load i32, i32* %6, align 4
  %71 = add nsw i32 %70, 1
  %72 = load i32, i32* %5, align 4
  %73 = add nsw i32 %71, %72
  %74 = sext i32 %73 to i64
  %75 = getelementptr inbounds [20 x i8], [20 x i8]* %1, i64 0, i64 %74
  store i8 %69, i8* %75, align 1
  br label %76

76:                                               ; preds = %65
  %77 = load i32, i32* %5, align 4
  %78 = add nsw i32 %77, 1
  store i32 %78, i32* %5, align 4
  br label %62

79:                                               ; preds = %62
  %80 = getelementptr inbounds [20 x i8], [20 x i8]* %1, i64 0, i64 0
  %81 = call i32 (i8*, ...) @printf(i8* getelementptr inbounds ([4 x i8], [4 x i8]* @.str.1, i64 0, i64 0), i8* %80)
  br label %9

82:                                               ; preds = %9
  ret void
}

; Function Attrs: argmemonly nounwind willreturn
declare void @llvm.memset.p0i8.i64(i8* nocapture writeonly, i8, i64, i1 immarg) #1

declare dso_local i32 @__isoc99_scanf(i8*, ...) #2

; Function Attrs: nounwind readonly
declare dso_local i64 @strlen(i8*) #3

declare dso_local i32 @printf(i8*, ...) #2


!llvm.module.flags = !{!0}
!llvm.ident = !{!1}

!0 = !{i32 1, !"wchar_size", i32 4}
!1 = !{!"clang version 10.0.0-4ubuntu1 "}
